target datalayout = "e-m:e-p270:32:32-p271:32:32-p272:64:64-i64:64-i128:128-f80:128-n8:16:32:64-S128"
target triple = "x86_64-pc-linux-gnu"

%struct.blocklist_t = type { ptr, ptr }
%struct.block = type { ptr, ptr, ptr, double, double, %struct.nodelist_t, %struct.blocklist_t, double, i32 }
%struct.nodelist_t = type { ptr, i64, i64, i64 }

; Function Attrs: nounwind uwtable
define void @freeBlocktree(ptr noundef %0) #0 {
  %2 = alloca ptr, align 8
  %3 = alloca ptr, align 8
  %4 = alloca ptr, align 8
  store ptr %0, ptr %2, align 8, !tbaa !17
  call void @llvm.lifetime.start.p0(i64 8, ptr %3) #12
  %5 = load ptr, ptr %2, align 8, !tbaa !17
  %6 = getelementptr inbounds nuw %struct.block, ptr %5, i32 0, i32 6
  %7 = getelementptr inbounds nuw %struct.blocklist_t, ptr %6, i32 0, i32 0
  %8 = load ptr, ptr %7, align 8, !tbaa !57
  store ptr %8, ptr %3, align 8, !tbaa !17
  call void @llvm.lifetime.start.p0(i64 8, ptr %4) #12
  br label %9

9:                                                ; preds = %18, %1
  %10 = load ptr, ptr %3, align 8, !tbaa !17
  %11 = icmp ne ptr %10, null
  br i1 %11, label %13, label %12

12:                                               ; preds = %9
  call void @llvm.lifetime.end.p0(i64 8, ptr %4) #12
  call void @llvm.lifetime.end.p0(i64 8, ptr %3) #12
  br label %20

13:                                               ; preds = %9
  %14 = load ptr, ptr %3, align 8, !tbaa !17
  %15 = getelementptr inbounds nuw %struct.block, ptr %14, i32 0, i32 1
  %16 = load ptr, ptr %15, align 8, !tbaa !18
  store ptr %16, ptr %4, align 8, !tbaa !17
  %17 = load ptr, ptr %3, align 8, !tbaa !17
  call void @freeBlocktree(ptr noundef %17)
  br label %18

18:                                               ; preds = %13
  %19 = load ptr, ptr %4, align 8, !tbaa !17
  store ptr %19, ptr %3, align 8, !tbaa !17
  br label %9, !llvm.loop !58

20:                                               ; preds = %12
  %21 = load ptr, ptr %2, align 8, !tbaa !17
  call void @freeBlock(ptr noundef %21)
  ret void
}