; Function Attrs: nounwind uwtable
define void @freeBlocktree(ptr noundef %0) local_unnamed_addr #0 {
  %2 = getelementptr inbounds nuw i8, ptr %0, i64 72
  %3 = load ptr, ptr %2, align 8, !tbaa !54
  %.not6 = icmp eq ptr %3, null
  br i1 %.not6, label %._crit_edge, label %.lr.ph

._crit_edge:                                      ; preds = %.lr.ph, %1
  tail call void @freeBlock(ptr noundef %0) #15
  ret void

.lr.ph:                                           ; preds = %1, %.lr.ph
  %.07 = phi ptr [ %5, %.lr.ph ], [ %3, %1 ]
  %4 = getelementptr inbounds nuw i8, ptr %.07, i64 8
  %5 = load ptr, ptr %4, align 8, !tbaa !42
  tail call void @freeBlocktree(ptr noundef nonnull %.07)
  %.not = icmp eq ptr %5, null
  br i1 %.not, label %._crit_edge, label %.lr.ph, !llvm.loop !55
}